; Function Attrs: nounwind uwtable
define range(i32 -21, 1) i32 @lsrkStep_AccessARKODEStepMem(ptr noundef %0, ptr noundef %1, ptr noundef writeonly captures(none) %2, ptr noundef writeonly captures(none) %3) local_unnamed_addr #0 {
  %5 = icmp eq ptr %0, null
  br i1 %5, label %6, label %7

6:                                                ; preds = %4
  tail call void (ptr, i32, i32, ptr, ptr, ptr, ...) @arkProcessError(ptr noundef null, i32 noundef -21, i32 noundef 2131, ptr noundef %1, ptr noundef nonnull @.str, ptr noundef nonnull @.str.5) #13
  br label %13

7:                                                ; preds = %4
  store ptr %0, ptr %2, align 8, !tbaa !36
  %8 = getelementptr inbounds nuw i8, ptr %0, i64 136
  %9 = load ptr, ptr %8, align 8, !tbaa !3
  %10 = icmp eq ptr %9, null
  br i1 %10, label %11, label %12

11:                                               ; preds = %7
  tail call void (ptr, i32, i32, ptr, ptr, ptr, ...) @arkProcessError(ptr noundef nonnull %0, i32 noundef -21, i32 noundef 2140, ptr noundef %1, ptr noundef nonnull @.str, ptr noundef nonnull @.str.39) #13
  br label %13

12:                                               ; preds = %7
  store ptr %9, ptr %3, align 8, !tbaa !100
  br label %13

13:                                               ; preds = %12, %11, %6
  %.0 = phi i32 [ -21, %6 ], [ -21, %11 ], [ 0, %12 ]
  ret i32 %.0
}